target datalayout = "e-m:e-p270:32:32-p271:32:32-p272:64:64-i64:64-i128:128-f80:128-n8:16:32:64-S128"
target triple = "x86_64-pc-linux-gnu"

; Function Attrs: nounwind uwtable
define ptr @Abc_NtkDChoice(ptr noundef %0, i32 noundef %1, i32 noundef %2, i32 noundef %3, i32 noundef %4, i32 noundef %5, i32 noundef %6) #0 {
  %8 = alloca ptr, align 8
  %9 = alloca ptr, align 8
  %10 = alloca i32, align 4
  %11 = alloca i32, align 4
  %12 = alloca i32, align 4
  %13 = alloca i32, align 4
  %14 = alloca i32, align 4
  %15 = alloca i32, align 4
  %16 = alloca ptr, align 8
  %17 = alloca ptr, align 8
  %18 = alloca ptr, align 8
  store ptr %0, ptr %9, align 8
  store i32 %1, ptr %10, align 4
  store i32 %2, ptr %11, align 4
  store i32 %3, ptr %12, align 4
  store i32 %4, ptr %13, align 4
  store i32 %5, ptr %14, align 4
  store i32 %6, ptr %15, align 4
  %19 = load ptr, ptr %9, align 8
  %20 = call ptr @Abc_NtkToDar(ptr noundef %19, i32 noundef 0, i32 noundef 0)
  store ptr %20, ptr %16, align 8
  %21 = load ptr, ptr %16, align 8
  %22 = icmp eq ptr %21, null
  br i1 %22, label %23, label %24

23:                                               ; preds = %7
  store ptr null, ptr %8, align 8
  br label %39

24:                                               ; preds = %7
  %25 = load ptr, ptr %16, align 8
  store ptr %25, ptr %17, align 8
  %26 = load i32, ptr %10, align 4
  %27 = load i32, ptr %11, align 4
  %28 = load i32, ptr %12, align 4
  %29 = load i32, ptr %13, align 4
  %30 = load i32, ptr %14, align 4
  %31 = load i32, ptr %15, align 4
  %32 = call ptr @Dar_ManChoice(ptr noundef %25, i32 noundef %26, i32 noundef %27, i32 noundef %28, i32 noundef %29, i32 noundef %30, i32 noundef %31)
  store ptr %32, ptr %16, align 8
  %33 = load ptr, ptr %17, align 8
  call void @Aig_ManStop(ptr noundef %33)
  %34 = load ptr, ptr %9, align 8
  %35 = load ptr, ptr %16, align 8
  %36 = call ptr @Abc_NtkFromDarChoices(ptr noundef %34, ptr noundef %35)
  store ptr %36, ptr %18, align 8
  %37 = load ptr, ptr %16, align 8
  call void @Aig_ManStop(ptr noundef %37)
  %38 = load ptr, ptr %18, align 8
  store ptr %38, ptr %8, align 8
  br label %39

39:                                               ; preds = %24, %23
  %40 = load ptr, ptr %8, align 8
  ret ptr %40
}