; Function Attrs: nounwind uwtable
define ptr @Abc_NtkDChoice(ptr noundef %0, i32 noundef %1, i32 noundef %2, i32 noundef %3, i32 noundef %4, i32 noundef %5, i32 noundef %6) local_unnamed_addr #1 {
  %8 = tail call ptr @Abc_NtkToDar(ptr noundef %0, i32 noundef 0, i32 noundef 0)
  %9 = icmp eq ptr %8, null
  br i1 %9, label %13, label %10

10:                                               ; preds = %7
  %11 = tail call ptr @Dar_ManChoice(ptr noundef nonnull %8, i32 noundef %1, i32 noundef %2, i32 noundef %3, i32 noundef %4, i32 noundef %5, i32 noundef %6) #19
  tail call void @Aig_ManStop(ptr noundef nonnull %8) #19
  %12 = tail call ptr @Abc_NtkFromDarChoices(ptr noundef %0, ptr noundef %11)
  tail call void @Aig_ManStop(ptr noundef %11) #19
  br label %13

13:                                               ; preds = %7, %10
  %.0 = phi ptr [ %12, %10 ], [ null, %7 ]
  ret ptr %.0
}